; Function Attrs: mustprogress uwtable
define hidden void @mbedtls_entropy_init(ptr noundef initializes((0, 4), (112, 116), (120, 920)) %0) local_unnamed_addr #0 {
  %2 = getelementptr inbounds nuw i8, ptr %0, i64 112
  store i32 0, ptr %2, align 8, !tbaa !3
  %3 = getelementptr inbounds nuw i8, ptr %0, i64 120
  tail call void @llvm.memset.p0.i64(ptr noundef nonnull align 8 dereferenceable(800) %3, i8 0, i64 800, i1 false)
  store i32 0, ptr %0, align 8, !tbaa !9
  %4 = getelementptr inbounds nuw i8, ptr %0, i64 4
  tail call void @mbedtls_sha256_init(ptr noundef nonnull %4)
  %5 = load i32, ptr %2, align 8, !tbaa !3
  %6 = icmp sgt i32 %5, 19
  br i1 %6, label %mbedtls_entropy_add_source.exit, label %7

7:                                                ; preds = %1
  %8 = sext i32 %5 to i64
  %9 = getelementptr inbounds [20 x %struct.mbedtls_entropy_source_state], ptr %3, i64 0, i64 %8
  store ptr @mbedtls_platform_entropy_poll, ptr %9, align 8, !tbaa !10
  %10 = getelementptr inbounds nuw i8, ptr %9, i64 8
  store ptr null, ptr %10, align 8, !tbaa !14
  %11 = getelementptr inbounds nuw i8, ptr %9, i64 24
  store i64 32, ptr %11, align 8, !tbaa !15
  %12 = getelementptr inbounds nuw i8, ptr %9, i64 32
  store i32 1, ptr %12, align 8, !tbaa !16
  %13 = add nsw i32 %5, 1
  store i32 %13, ptr %2, align 8, !tbaa !3
  br label %mbedtls_entropy_add_source.exit

mbedtls_entropy_add_source.exit:                  ; preds = %1, %7
  ret void
}